target datalayout = "e-m:e-p270:32:32-p271:32:32-p272:64:64-i64:64-i128:128-f80:128-n8:16:32:64-S128"
target triple = "x86_64-pc-linux-gnu"

%struct._voip_calls_tapinfo = type { ptr, ptr, ptr, ptr, i32, ptr, [1 x ptr], i32, ptr, i32, i32, i32, ptr, ptr, i32, ptr, i32, i8, i8, ptr, i32, i32, i32, i8, i32, ptr, ptr, ptr, i8, i32, i32, i32, i16, i32, i8, i32, i32, i32, i32, i32, i32, i8 }
%struct._GList = type { ptr, ptr, ptr }
%struct._address = type { i32, i32, ptr, ptr }
%struct._seq_analysis_info = type { ptr, i8, i32, ptr, ptr, [40 x %struct._address], [40 x i8], i32 }
%struct._seq_analysis_item = type { i32, %struct._address, i16, %struct._address, i16, ptr, ptr, ptr, i16, i32, i32, i8, i8, i32, i32, i16, i32, ptr }

; Function Attrs: null_pointer_is_valid sspstrong uwtable
define internal i32 @change_call_num_graph(ptr noundef %0, i16 noundef zeroext %1, i16 noundef zeroext %2) #0 {
  %4 = alloca ptr, align 8
  %5 = alloca i16, align 2
  %6 = alloca i16, align 2
  %7 = alloca ptr, align 8
  %8 = alloca ptr, align 8
  %9 = alloca i32, align 4
  store ptr %0, ptr %4, align 8
  store i16 %1, ptr %5, align 2
  store i16 %2, ptr %6, align 2
  call void @llvm.lifetime.start.p0(i64 8, ptr %7) #16
  call void @llvm.lifetime.start.p0(i64 8, ptr %8) #16
  call void @llvm.lifetime.start.p0(i64 4, ptr %9) #16
  store i32 0, ptr %9, align 4
  %10 = load ptr, ptr %4, align 8
  %11 = getelementptr inbounds nuw %struct._voip_calls_tapinfo, ptr %10, i32 0, i32 12
  %12 = load ptr, ptr %11, align 8
  %13 = icmp ne ptr %12, null
  br i1 %13, label %14, label %52

14:                                               ; preds = %3
  %15 = load ptr, ptr %4, align 8
  %16 = getelementptr inbounds nuw %struct._voip_calls_tapinfo, ptr %15, i32 0, i32 12
  %17 = load ptr, ptr %16, align 8
  %18 = getelementptr inbounds nuw %struct._seq_analysis_info, ptr %17, i32 0, i32 3
  %19 = load ptr, ptr %18, align 8
  %20 = call ptr @g_queue_peek_nth_link(ptr noundef %19, i32 noundef 0)
  store ptr %20, ptr %8, align 8
  br label %21

21:                                               ; preds = %49, %14
  %22 = load ptr, ptr %8, align 8
  %23 = icmp ne ptr %22, null
  br i1 %23, label %24, label %51

24:                                               ; preds = %21
  %25 = load ptr, ptr %8, align 8
  %26 = getelementptr inbounds nuw %struct._GList, ptr %25, i32 0, i32 0
  %27 = load ptr, ptr %26, align 8
  store ptr %27, ptr %7, align 8
  %28 = load ptr, ptr %7, align 8
  %29 = getelementptr inbounds nuw %struct._seq_analysis_item, ptr %28, i32 0, i32 8
  %30 = load i16, ptr %29, align 8
  %31 = zext i16 %30 to i32
  %32 = load i16, ptr %5, align 2
  %33 = zext i16 %32 to i32
  %34 = icmp eq i32 %31, %33
  br i1 %34, label %35, label %41

35:                                               ; preds = %24
  %36 = load i16, ptr %6, align 2
  %37 = load ptr, ptr %7, align 8
  %38 = getelementptr inbounds nuw %struct._seq_analysis_item, ptr %37, i32 0, i32 8
  store i16 %36, ptr %38, align 8
  %39 = load i32, ptr %9, align 4
  %40 = add i32 %39, 1
  store i32 %40, ptr %9, align 4
  br label %41

41:                                               ; preds = %35, %24
  %42 = load ptr, ptr %8, align 8
  %43 = icmp ne ptr %42, null
  br i1 %43, label %44, label %48

44:                                               ; preds = %41
  %45 = load ptr, ptr %8, align 8
  %46 = getelementptr inbounds nuw %struct._GList, ptr %45, i32 0, i32 1
  %47 = load ptr, ptr %46, align 8
  br label %49

48:                                               ; preds = %41
  br label %49

49:                                               ; preds = %48, %44
  %50 = phi ptr [ %47, %44 ], [ null, %48 ]
  store ptr %50, ptr %8, align 8
  br label %21, !llvm.loop !24

51:                                               ; preds = %21
  br label %52

52:                                               ; preds = %51, %3
  %53 = load i32, ptr %9, align 4
  call void @llvm.lifetime.end.p0(i64 4, ptr %9) #16
  call void @llvm.lifetime.end.p0(i64 8, ptr %8) #16
  call void @llvm.lifetime.end.p0(i64 8, ptr %7) #16
  ret i32 %53
}