; Function Attrs: null_pointer_is_valid sspstrong uwtable
define internal fastcc i32 @change_call_num_graph(ptr readonly captures(address_is_null) %.88.val, i16 noundef zeroext %0, i16 noundef zeroext %1) unnamed_addr #0 {
  %.not = icmp eq ptr %.88.val, null
  br i1 %.not, label %.loopexit, label %3

3:                                                ; preds = %2
  %4 = getelementptr inbounds nuw i8, ptr %.88.val, i64 16
  %5 = load ptr, ptr %4, align 8
  %6 = tail call ptr @g_queue_peek_nth_link(ptr noundef %5, i32 noundef 0)
  %.not131 = icmp eq ptr %6, null
  br i1 %.not131, label %.loopexit, label %.lr.ph

.lr.ph:                                           ; preds = %3, %13
  %.13 = phi i32 [ %.2, %13 ], [ 0, %3 ]
  %.0112 = phi ptr [ %15, %13 ], [ %6, %3 ]
  %7 = load ptr, ptr %.0112, align 8
  %8 = getelementptr inbounds nuw i8, ptr %7, i64 96
  %9 = load i16, ptr %8, align 8
  %10 = icmp eq i16 %9, %0
  br i1 %10, label %11, label %13

11:                                               ; preds = %.lr.ph
  store i16 %1, ptr %8, align 8
  %12 = add i32 %.13, 1
  br label %13

13:                                               ; preds = %11, %.lr.ph
  %.2 = phi i32 [ %12, %11 ], [ %.13, %.lr.ph ]
  %14 = getelementptr inbounds nuw i8, ptr %.0112, i64 8
  %15 = load ptr, ptr %14, align 8
  %.not13 = icmp eq ptr %15, null
  br i1 %.not13, label %.loopexit, label %.lr.ph, !llvm.loop !24

.loopexit:                                        ; preds = %13, %3, %2
  %.0 = phi i32 [ 0, %2 ], [ 0, %3 ], [ %.2, %13 ]
  ret i32 %.0
}